target datalayout = "e-m:e-p270:32:32-p271:32:32-p272:64:64-i64:64-i128:128-f80:128-n8:16:32:64-S128"
target triple = "x86_64-unknown-linux-gnu"

%"class.EA::StdC::Stopwatch" = type { i64, i64, i32, float }
%class.EASTLTest_Rand = type { i64 }

@.str.54 = private unnamed_addr constant [11 x i8] c"Algorithm\0A\00", align 1

; Function Attrs: mustprogress nounwind uwtable
define linkonce_odr dso_local void @_ZN2EA4StdC9StopwatchD2Ev(ptr noundef nonnull align 8 dereferenceable(24) %this) unnamed_addr #4 comdat align 2 {
entry:
  %this.addr = alloca ptr, align 8
  store ptr %this, ptr %this.addr, align 8
  ret void
}

; Function Attrs: mustprogress nounwind uwtable
define linkonce_odr dso_local void @_ZN14EASTLTest_RandC2Em(ptr noundef nonnull align 8 dereferenceable(8) %this, i64 noundef %nSeed) unnamed_addr #4 comdat align 2 {
entry:
  %this.addr = alloca ptr, align 8
  %nSeed.addr = alloca i64, align 8
  store ptr %this, ptr %this.addr, align 8
  store i64 %nSeed, ptr %nSeed.addr, align 8
  %this1 = load ptr, ptr %this.addr, align 8
  %mnSeed = getelementptr inbounds %class.EASTLTest_Rand, ptr %this1, i32 0, i32 0
  %0 = load i64, ptr %nSeed.addr, align 8
  store i64 %0, ptr %mnSeed, align 8
  ret void
}

; Function Attrs: mustprogress uwtable
define dso_local void @_Z18BenchmarkAlgorithmv() #0 personality ptr @__gxx_personality_v0 {
entry:
  %rng = alloca %class.EASTLTest_Rand, align 8
  %stopwatch1 = alloca %"class.EA::StdC::Stopwatch", align 8
  %stopwatch2 = alloca %"class.EA::StdC::Stopwatch", align 8
  %exn.slot = alloca ptr, align 8
  %ehselector.slot = alloca i32, align 4
  call void (ptr, ...) @_ZN2EA8UnitTest6ReportEPKcz(ptr noundef @.str.54)
  %call = call noundef i32 @_ZN2EA8UnitTest11GetRandSeedEv()
  %conv = zext i32 %call to i64
  call void @_ZN14EASTLTest_RandC2Em(ptr noundef nonnull align 8 dereferenceable(8) %rng, i64 noundef %conv)
  call void @_ZN2EA4StdC9StopwatchC1Eib(ptr noundef nonnull align 8 dereferenceable(24) %stopwatch1, i32 noundef 1, i1 noundef zeroext false)
  invoke void @_ZN2EA4StdC9StopwatchC1Eib(ptr noundef nonnull align 8 dereferenceable(24) %stopwatch2, i32 noundef 1, i1 noundef zeroext false)
          to label %invoke.cont unwind label %lpad

invoke.cont:                                      ; preds = %entry
  invoke void @_Z19BenchmarkAlgorithm1R14EASTLTest_RandRN2EA4StdC9StopwatchES4_(ptr noundef nonnull align 8 dereferenceable(8) %rng, ptr noundef nonnull align 8 dereferenceable(24) %stopwatch1, ptr noundef nonnull align 8 dereferenceable(24) %stopwatch2)
          to label %invoke.cont2 unwind label %lpad1

invoke.cont2:                                     ; preds = %invoke.cont
  invoke void @_Z19BenchmarkAlgorithm2R14EASTLTest_RandRN2EA4StdC9StopwatchES4_(ptr noundef nonnull align 8 dereferenceable(8) %rng, ptr noundef nonnull align 8 dereferenceable(24) %stopwatch1, ptr noundef nonnull align 8 dereferenceable(24) %stopwatch2)
          to label %invoke.cont3 unwind label %lpad1

invoke.cont3:                                     ; preds = %invoke.cont2
  invoke void @_Z19BenchmarkAlgorithm3R14EASTLTest_RandRN2EA4StdC9StopwatchES4_(ptr noundef nonnull align 8 dereferenceable(8) %rng, ptr noundef nonnull align 8 dereferenceable(24) %stopwatch1, ptr noundef nonnull align 8 dereferenceable(24) %stopwatch2)
          to label %invoke.cont4 unwind label %lpad1

invoke.cont4:                                     ; preds = %invoke.cont3
  invoke void @_Z19BenchmarkAlgorithm4R14EASTLTest_RandRN2EA4StdC9StopwatchES4_(ptr noundef nonnull align 8 dereferenceable(8) %rng, ptr noundef nonnull align 8 dereferenceable(24) %stopwatch1, ptr noundef nonnull align 8 dereferenceable(24) %stopwatch2)
          to label %invoke.cont5 unwind label %lpad1

invoke.cont5:                                     ; preds = %invoke.cont4
  invoke void @_Z19BenchmarkAlgorithm5R14EASTLTest_RandRN2EA4StdC9StopwatchES4_(ptr noundef nonnull align 8 dereferenceable(8) %rng, ptr noundef nonnull align 8 dereferenceable(24) %stopwatch1, ptr noundef nonnull align 8 dereferenceable(24) %stopwatch2)
          to label %invoke.cont6 unwind label %lpad1

invoke.cont6:                                     ; preds = %invoke.cont5
  invoke void @_Z19BenchmarkAlgorithm6R14EASTLTest_RandRN2EA4StdC9StopwatchES4_(ptr noundef nonnull align 8 dereferenceable(8) %rng, ptr noundef nonnull align 8 dereferenceable(24) %stopwatch1, ptr noundef nonnull align 8 dereferenceable(24) %stopwatch2)
          to label %invoke.cont7 unwind label %lpad1

invoke.cont7:                                     ; preds = %invoke.cont6
  invoke void @_Z19BenchmarkAlgorithm7R14EASTLTest_RandRN2EA4StdC9StopwatchES4_(ptr noundef nonnull align 8 dereferenceable(8) %rng, ptr noundef nonnull align 8 dereferenceable(24) %stopwatch1, ptr noundef nonnull align 8 dereferenceable(24) %stopwatch2)
          to label %invoke.cont8 unwind label %lpad1

invoke.cont8:                                     ; preds = %invoke.cont7
  invoke void @_Z19BenchmarkAlgorithm8R14EASTLTest_RandRN2EA4StdC9StopwatchES4_(ptr noundef nonnull align 8 dereferenceable(8) %rng, ptr noundef nonnull align 8 dereferenceable(24) %stopwatch1, ptr noundef nonnull align 8 dereferenceable(24) %stopwatch2)
          to label %invoke.cont9 unwind label %lpad1

invoke.cont9:                                     ; preds = %invoke.cont8
  call void @_ZN2EA4StdC9StopwatchD2Ev(ptr noundef nonnull align 8 dereferenceable(24) %stopwatch2) #9
  call void @_ZN2EA4StdC9StopwatchD2Ev(ptr noundef nonnull align 8 dereferenceable(24) %stopwatch1) #9
  ret void

lpad:                                             ; preds = %entry
  %0 = landingpad { ptr, i32 }
          cleanup
  %1 = extractvalue { ptr, i32 } %0, 0
  store ptr %1, ptr %exn.slot, align 8
  %2 = extractvalue { ptr, i32 } %0, 1
  store i32 %2, ptr %ehselector.slot, align 4
  br label %ehcleanup

lpad1:                                            ; preds = %invoke.cont8, %invoke.cont7, %invoke.cont6, %invoke.cont5, %invoke.cont4, %invoke.cont3, %invoke.cont2, %invoke.cont
  %3 = landingpad { ptr, i32 }
          cleanup
  %4 = extractvalue { ptr, i32 } %3, 0
  store ptr %4, ptr %exn.slot, align 8
  %5 = extractvalue { ptr, i32 } %3, 1
  store i32 %5, ptr %ehselector.slot, align 4
  call void @_ZN2EA4StdC9StopwatchD2Ev(ptr noundef nonnull align 8 dereferenceable(24) %stopwatch2) #9
  br label %ehcleanup

ehcleanup:                                        ; preds = %lpad1, %lpad
  call void @_ZN2EA4StdC9StopwatchD2Ev(ptr noundef nonnull align 8 dereferenceable(24) %stopwatch1) #9
  br label %eh.resume

eh.resume:                                        ; preds = %ehcleanup
  %exn = load ptr, ptr %exn.slot, align 8
  %sel = load i32, ptr %ehselector.slot, align 4
  %lpad.val = insertvalue { ptr, i32 } poison, ptr %exn, 0
  %lpad.val10 = insertvalue { ptr, i32 } %lpad.val, i32 %sel, 1
  resume { ptr, i32 } %lpad.val10
}