; Function Attrs: mustprogress uwtable
define dso_local void @_Z18BenchmarkAlgorithmv() local_unnamed_addr #0 personality ptr @__gxx_personality_v0 {
entry:
  %rng = alloca %class.EASTLTest_Rand, align 8
  %stopwatch1 = alloca %"class.EA::StdC::Stopwatch", align 8
  %stopwatch2 = alloca %"class.EA::StdC::Stopwatch", align 8
  tail call void (ptr, ...) @_ZN2EA8UnitTest6ReportEPKcz(ptr noundef nonnull @.str.54)
  %call = tail call noundef i32 @_ZN2EA8UnitTest11GetRandSeedEv()
  %conv = zext i32 %call to i64
  store i64 %conv, ptr %rng, align 8
  call void @_ZN2EA4StdC9StopwatchC1Eib(ptr noundef nonnull align 8 dereferenceable(24) %stopwatch1, i32 noundef 1, i1 noundef zeroext false)
  call void @_ZN2EA4StdC9StopwatchC1Eib(ptr noundef nonnull align 8 dereferenceable(24) %stopwatch2, i32 noundef 1, i1 noundef zeroext false)
  call void @_Z19BenchmarkAlgorithm1R14EASTLTest_RandRN2EA4StdC9StopwatchES4_(ptr nonnull align 8 poison, ptr noundef nonnull align 8 dereferenceable(24) %stopwatch1, ptr noundef nonnull align 8 dereferenceable(24) %stopwatch2)
  call void @_Z19BenchmarkAlgorithm2R14EASTLTest_RandRN2EA4StdC9StopwatchES4_(ptr noundef nonnull align 8 dereferenceable(8) %rng, ptr noundef nonnull align 8 dereferenceable(24) %stopwatch1, ptr noundef nonnull align 8 dereferenceable(24) %stopwatch2)
  call void @_Z19BenchmarkAlgorithm3R14EASTLTest_RandRN2EA4StdC9StopwatchES4_(ptr nonnull align 8 poison, ptr noundef nonnull align 8 dereferenceable(24) %stopwatch1, ptr noundef nonnull align 8 dereferenceable(24) %stopwatch2)
  call void @_Z19BenchmarkAlgorithm4R14EASTLTest_RandRN2EA4StdC9StopwatchES4_(ptr nonnull align 8 poison, ptr noundef nonnull align 8 dereferenceable(24) %stopwatch1, ptr noundef nonnull align 8 dereferenceable(24) %stopwatch2)
  call void @_Z19BenchmarkAlgorithm5R14EASTLTest_RandRN2EA4StdC9StopwatchES4_(ptr nonnull align 8 poison, ptr noundef nonnull align 8 dereferenceable(24) %stopwatch1, ptr noundef nonnull align 8 dereferenceable(24) %stopwatch2)
  call void @_Z19BenchmarkAlgorithm6R14EASTLTest_RandRN2EA4StdC9StopwatchES4_(ptr nonnull align 8 poison, ptr noundef nonnull align 8 dereferenceable(24) %stopwatch1, ptr noundef nonnull align 8 dereferenceable(24) %stopwatch2)
  call void @_Z19BenchmarkAlgorithm7R14EASTLTest_RandRN2EA4StdC9StopwatchES4_(ptr nonnull align 8 poison, ptr noundef nonnull align 8 dereferenceable(24) %stopwatch1, ptr noundef nonnull align 8 dereferenceable(24) %stopwatch2)
  call void @_Z19BenchmarkAlgorithm8R14EASTLTest_RandRN2EA4StdC9StopwatchES4_(ptr noundef nonnull align 8 dereferenceable(8) %rng, ptr noundef nonnull align 8 dereferenceable(24) %stopwatch1, ptr noundef nonnull align 8 dereferenceable(24) %stopwatch2)
  ret void
}